target datalayout = "e-m:e-p270:32:32-p271:32:32-p272:64:64-i64:64-i128:128-f80:128-n8:16:32:64-S128"
target triple = "x86_64-unknown-linux-gnu"

%"class.llvh::ArrayRef" = type { ptr, i64 }
%"union.hermes::hbc::BytecodeOptions" = type { %struct.anon }
%struct.anon = type { i8 }
%"class.llvh::ArrayRef.2" = type { ptr, i64 }
%"class.llvh::ArrayRef.3" = type { ptr, i64 }
%"class.llvh::ArrayRef.4" = type { ptr, i64 }
%"class.llvh::ArrayRef.5" = type { ptr, i64 }
%"class.llvh::ArrayRef.6" = type { ptr, i64 }
%"class.llvh::ArrayRef.7" = type { ptr, i64 }
%"class.llvh::ArrayRef.18" = type { ptr, i64 }
%"union.hermes::hbc::FunctionHeaderFlag" = type { %struct.anon.45 }
%struct.anon.45 = type { i8 }
%"class.std::__cxx11::basic_string" = type { %"struct.std::__cxx11::basic_string<char>::_Alloc_hider", i64, %union.anon }
%"struct.std::__cxx11::basic_string<char>::_Alloc_hider" = type { ptr }
%union.anon = type { i64, [8 x i8] }
%"class.hermes::hbc::BCProviderBase" = type { ptr, %"union.hermes::hbc::BytecodeOptions", i32, i32, i32, %"class.llvh::ArrayRef.2", %"class.llvh::ArrayRef.3", %"class.llvh::ArrayRef", %"class.llvh::ArrayRef", %"class.llvh::ArrayRef", %"class.llvh::ArrayRef", %"class.llvh::ArrayRef.5", %"class.llvh::ArrayRef", %"class.llvh::ArrayRef.6", %"class.llvh::ArrayRef", i32, %"class.llvh::ArrayRef.7", %"class.llvh::ArrayRef.7", %"class.llvh::ArrayRef.7", ptr, %"class.std::__cxx11::basic_string" }
%"class.hermes::hbc::BCProviderFromBuffer" = type { %"class.hermes::hbc::BCProviderBase", %"class.std::unique_ptr", ptr, ptr, ptr, %"class.llvh::ArrayRef.4", i32, [4 x i8], %"class.llvh::Optional.31", %"struct.std::atomic", %"class.std::unique_ptr.36", ptr }
%"class.std::unique_ptr" = type { %"struct.std::__uniq_ptr_data" }
%"struct.std::__uniq_ptr_data" = type { %"class.std::__uniq_ptr_impl" }
%"class.std::__uniq_ptr_impl" = type { %"class.std::tuple" }
%"class.std::tuple" = type { %"struct.std::_Tuple_impl" }
%"struct.std::_Tuple_impl" = type { %"struct.std::_Head_base.30" }
%"struct.std::_Head_base.30" = type { ptr }
%"class.llvh::Optional.31" = type { %"struct.llvh::optional_detail::OptionalStorage.32" }
%"struct.llvh::optional_detail::OptionalStorage.32" = type { %"struct.llvh::AlignedCharArrayUnion.33", i8, [7 x i8] }
%"struct.llvh::AlignedCharArrayUnion.33" = type { %"struct.llvh::AlignedCharArray.34" }
%"struct.llvh::AlignedCharArray.34" = type { [8 x i8] }
%"struct.std::atomic" = type { %"struct.std::__atomic_base" }
%"struct.std::__atomic_base" = type { i8 }
%"class.std::unique_ptr.36" = type { %"struct.std::__uniq_ptr_data.37" }
%"struct.std::__uniq_ptr_data.37" = type { %"class.std::__uniq_ptr_impl.38" }
%"class.std::__uniq_ptr_impl.38" = type { %"class.std::tuple.39" }
%"class.std::tuple.39" = type { %"struct.std::_Tuple_impl.40" }
%"struct.std::_Tuple_impl.40" = type { %"struct.std::_Head_base.43" }
%"struct.std::_Head_base.43" = type { ptr }
%"struct.std::pair" = type { %"class.llvh::ArrayRef.18", ptr }
%"struct.hermes::hbc::SmallFuncHeader" = type { [15 x i8], %"union.hermes::hbc::FunctionHeaderFlag" }
%"struct.hermes::hbc::ExceptionHandlerTableHeader" = type { i32 }

@.str.9 = private unnamed_addr constant [30 x i8] c"overflow past end of bytecode\00", align 1

; Function Attrs: mustprogress nounwind uwtable
define internal noundef ptr @_ZN6hermes3hbc12_GLOBAL__N_114alignCheckCastINS0_12DebugOffsetsEEEPKT_PKh(ptr noundef %buf) #0 {
entry:
  %buf.addr = alloca ptr, align 8
  store ptr %buf, ptr %buf.addr, align 8
  %0 = load ptr, ptr %buf.addr, align 8
  ret ptr %0
}

; Function Attrs: mustprogress nounwind uwtable
define linkonce_odr hidden void @_ZN4llvh8ArrayRefIN6hermes3hbc23HBCExceptionHandlerInfoEEC2EPKS3_m(ptr noundef nonnull align 8 dereferenceable(16) %this, ptr noundef %data, i64 noundef %length) unnamed_addr #0 comdat align 2 {
entry:
  %this.addr = alloca ptr, align 8
  %data.addr = alloca ptr, align 8
  %length.addr = alloca i64, align 8
  store ptr %this, ptr %this.addr, align 8
  store ptr %data, ptr %data.addr, align 8
  store i64 %length, ptr %length.addr, align 8
  %this1 = load ptr, ptr %this.addr, align 8
  %Data = getelementptr inbounds %"class.llvh::ArrayRef.18", ptr %this1, i32 0, i32 0
  %0 = load ptr, ptr %data.addr, align 8
  store ptr %0, ptr %Data, align 8
  %Length = getelementptr inbounds %"class.llvh::ArrayRef.18", ptr %this1, i32 0, i32 1
  %1 = load i64, ptr %length.addr, align 8
  store i64 %1, ptr %Length, align 8
  ret void
}

; Function Attrs: mustprogress nounwind uwtable
define internal noundef ptr @_ZN6hermes3hbc12_GLOBAL__N_114alignCheckCastINS0_23HBCExceptionHandlerInfoEEEPKT_PKh(ptr noundef %buf) #0 {
entry:
  %buf.addr = alloca ptr, align 8
  store ptr %buf, ptr %buf.addr, align 8
  %0 = load ptr, ptr %buf.addr, align 8
  ret ptr %0
}

; Function Attrs: mustprogress nounwind uwtable
define internal noundef ptr @_ZN6hermes3hbc12_GLOBAL__N_114alignCheckCastINS0_27ExceptionHandlerTableHeaderEEEPKT_PKh(ptr noundef %buf) #0 {
entry:
  %buf.addr = alloca ptr, align 8
  store ptr %buf, ptr %buf.addr, align 8
  %0 = load ptr, ptr %buf.addr, align 8
  ret ptr %0
}

; Function Attrs: mustprogress nounwind uwtable
define linkonce_odr hidden noundef i64 @_ZN4llvh9alignAddrEPKvm(ptr noundef %Addr, i64 noundef %Alignment) #0 comdat {
entry:
  %Addr.addr = alloca ptr, align 8
  %Alignment.addr = alloca i64, align 8
  store ptr %Addr, ptr %Addr.addr, align 8
  store i64 %Alignment, ptr %Alignment.addr, align 8
  %0 = load ptr, ptr %Addr.addr, align 8
  %1 = ptrtoint ptr %0 to i64
  %2 = load i64, ptr %Alignment.addr, align 8
  %add = add i64 %1, %2
  %sub = sub i64 %add, 1
  %3 = load i64, ptr %Alignment.addr, align 8
  %sub1 = sub i64 %3, 1
  %not = xor i64 %sub1, -1
  %and = and i64 %sub, %not
  ret i64 %and
}

; Function Attrs: mustprogress nounwind uwtable
define linkonce_odr hidden void @_ZNSt4pairIN4llvh8ArrayRefIN6hermes3hbc23HBCExceptionHandlerInfoEEEPKNS3_12DebugOffsetsEEC2IRS5_RS8_TnNSt9enable_ifIXaaclsr5_PCCPE22_MoveConstructiblePairIT_T0_EEclsr5_PCCPE30_ImplicitlyMoveConvertiblePairISE_SF_EEEbE4typeELb1EEEOSE_OSF_(ptr noundef nonnull align 8 dereferenceable(24) %this, ptr noundef nonnull align 8 dereferenceable(16) %__x, ptr noundef nonnull align 8 dereferenceable(8) %__y) unnamed_addr #0 comdat align 2 {
entry:
  %this.addr = alloca ptr, align 8
  %__x.addr = alloca ptr, align 8
  %__y.addr = alloca ptr, align 8
  store ptr %this, ptr %this.addr, align 8
  store ptr %__x, ptr %__x.addr, align 8
  store ptr %__y, ptr %__y.addr, align 8
  %this1 = load ptr, ptr %this.addr, align 8
  %first = getelementptr inbounds %"struct.std::pair", ptr %this1, i32 0, i32 0
  %0 = load ptr, ptr %__x.addr, align 8
  call void @llvm.memcpy.p0.p0.i64(ptr align 8 %first, ptr align 8 %0, i64 16, i1 false)
  %second = getelementptr inbounds %"struct.std::pair", ptr %this1, i32 0, i32 1
  %1 = load ptr, ptr %__y.addr, align 8
  %2 = load ptr, ptr %1, align 8
  store ptr %2, ptr %second, align 8
  ret void
}

; Function Attrs: mustprogress nounwind uwtable
define internal noundef ptr @_ZN6hermes3hbc12_GLOBAL__N_18castDataINS0_12DebugOffsetsEEEPKT_RPKh(ptr noundef nonnull align 8 dereferenceable(8) %buf) #0 {
entry:
  %buf.addr = alloca ptr, align 8
  %ret = alloca ptr, align 8
  store ptr %buf, ptr %buf.addr, align 8
  %0 = load ptr, ptr %buf.addr, align 8
  %1 = load ptr, ptr %0, align 8
  %call = call noundef ptr @_ZN6hermes3hbc12_GLOBAL__N_114alignCheckCastINS0_12DebugOffsetsEEEPKT_PKh(ptr noundef %1)
  store ptr %call, ptr %ret, align 8
  %2 = load ptr, ptr %buf.addr, align 8
  %3 = load ptr, ptr %2, align 8
  %add.ptr = getelementptr inbounds i8, ptr %3, i64 12
  store ptr %add.ptr, ptr %2, align 8
  %4 = load ptr, ptr %ret, align 8
  ret ptr %4
}

; Function Attrs: mustprogress nounwind uwtable
define internal { ptr, i64 } @_ZN6hermes3hbc12_GLOBAL__N_112castArrayRefINS0_23HBCExceptionHandlerInfoEEEN4llvh8ArrayRefIT_EERPKhmS9_(ptr noundef nonnull align 8 dereferenceable(8) %buf, i64 noundef %size, ptr noundef %end) #0 {
entry:
  %retval = alloca %"class.llvh::ArrayRef.18", align 8
  %buf.addr = alloca ptr, align 8
  %size.addr = alloca i64, align 8
  %end.addr = alloca ptr, align 8
  %ptr = alloca ptr, align 8
  store ptr %buf, ptr %buf.addr, align 8
  store i64 %size, ptr %size.addr, align 8
  store ptr %end, ptr %end.addr, align 8
  %0 = load ptr, ptr %buf.addr, align 8
  %1 = load ptr, ptr %0, align 8
  %call = call noundef ptr @_ZN6hermes3hbc12_GLOBAL__N_114alignCheckCastINS0_23HBCExceptionHandlerInfoEEEPKT_PKh(ptr noundef %1)
  store ptr %call, ptr %ptr, align 8
  %2 = load ptr, ptr %buf.addr, align 8
  %3 = load ptr, ptr %2, align 8
  %4 = load ptr, ptr %end.addr, align 8
  %cmp = icmp ugt ptr %3, %4
  br i1 %cmp, label %lor.end, label %lor.rhs

lor.rhs:                                          ; preds = %entry
  %5 = load i64, ptr %size.addr, align 8
  %6 = load ptr, ptr %end.addr, align 8
  %7 = load ptr, ptr %buf.addr, align 8
  %8 = load ptr, ptr %7, align 8
  %sub.ptr.lhs.cast = ptrtoint ptr %6 to i64
  %sub.ptr.rhs.cast = ptrtoint ptr %8 to i64
  %sub.ptr.sub = sub i64 %sub.ptr.lhs.cast, %sub.ptr.rhs.cast
  %div = udiv i64 %sub.ptr.sub, 12
  %cmp1 = icmp ugt i64 %5, %div
  br label %lor.end

lor.end:                                          ; preds = %lor.rhs, %entry
  %9 = phi i1 [ true, %entry ], [ %cmp1, %lor.rhs ]
  br i1 %9, label %if.then, label %if.end

if.then:                                          ; preds = %lor.end
  call void @_ZN6hermes12hermes_fatalEPKc(ptr noundef @.str.9) #16
  unreachable

if.end:                                           ; preds = %lor.end
  %10 = load i64, ptr %size.addr, align 8
  %mul = mul i64 %10, 12
  %11 = load ptr, ptr %buf.addr, align 8
  %12 = load ptr, ptr %11, align 8
  %add.ptr = getelementptr inbounds i8, ptr %12, i64 %mul
  store ptr %add.ptr, ptr %11, align 8
  %13 = load ptr, ptr %ptr, align 8
  %14 = load i64, ptr %size.addr, align 8
  call void @_ZN4llvh8ArrayRefIN6hermes3hbc23HBCExceptionHandlerInfoEEC2EPKS3_m(ptr noundef nonnull align 8 dereferenceable(16) %retval, ptr noundef %13, i64 noundef %14)
  %15 = load { ptr, i64 }, ptr %retval, align 8
  ret { ptr, i64 } %15
}

; Function Attrs: mustprogress nounwind uwtable
define internal noundef ptr @_ZN6hermes3hbc12_GLOBAL__N_18castDataINS0_27ExceptionHandlerTableHeaderEEEPKT_RPKh(ptr noundef nonnull align 8 dereferenceable(8) %buf) #0 {
entry:
  %buf.addr = alloca ptr, align 8
  %ret = alloca ptr, align 8
  store ptr %buf, ptr %buf.addr, align 8
  %0 = load ptr, ptr %buf.addr, align 8
  %1 = load ptr, ptr %0, align 8
  %call = call noundef ptr @_ZN6hermes3hbc12_GLOBAL__N_114alignCheckCastINS0_27ExceptionHandlerTableHeaderEEEPKT_PKh(ptr noundef %1)
  store ptr %call, ptr %ret, align 8
  %2 = load ptr, ptr %buf.addr, align 8
  %3 = load ptr, ptr %2, align 8
  %add.ptr = getelementptr inbounds i8, ptr %3, i64 4
  store ptr %add.ptr, ptr %2, align 8
  %4 = load ptr, ptr %ret, align 8
  ret ptr %4
}

; Function Attrs: mustprogress nounwind uwtable
define internal void @_ZN6hermes3hbc12_GLOBAL__N_15alignERPKhj(ptr noundef nonnull align 8 dereferenceable(8) %buf, i32 noundef %alignment) #0 {
entry:
  %buf.addr = alloca ptr, align 8
  %alignment.addr = alloca i32, align 4
  store ptr %buf, ptr %buf.addr, align 8
  store i32 %alignment, ptr %alignment.addr, align 4
  %0 = load ptr, ptr %buf.addr, align 8
  %1 = load ptr, ptr %0, align 8
  %2 = load i32, ptr %alignment.addr, align 4
  %conv = zext i32 %2 to i64
  %call = call noundef i64 @_ZN4llvh9alignAddrEPKvm(ptr noundef %1, i64 noundef %conv)
  %3 = inttoptr i64 %call to ptr
  %4 = load ptr, ptr %buf.addr, align 8
  store ptr %3, ptr %4, align 8
  ret void
}

; Function Attrs: mustprogress nounwind uwtable
define linkonce_odr hidden void @_ZN4llvh8ArrayRefIN6hermes3hbc23HBCExceptionHandlerInfoEEC2Ev(ptr noundef nonnull align 8 dereferenceable(16) %this) unnamed_addr #0 comdat align 2 {
entry:
  %this.addr = alloca ptr, align 8
  store ptr %this, ptr %this.addr, align 8
  %this1 = load ptr, ptr %this.addr, align 8
  %Data = getelementptr inbounds %"class.llvh::ArrayRef.18", ptr %this1, i32 0, i32 0
  store ptr null, ptr %Data, align 8
  %Length = getelementptr inbounds %"class.llvh::ArrayRef.18", ptr %this1, i32 0, i32 1
  store i64 0, ptr %Length, align 8
  ret void
}

; Function Attrs: mustprogress nounwind uwtable
define linkonce_odr hidden noundef i32 @_ZNK6hermes3hbc15SmallFuncHeader20getLargeHeaderOffsetEv(ptr noundef nonnull align 1 dereferenceable(16) %this) #0 comdat align 2 {
entry:
  %this.addr = alloca ptr, align 8
  store ptr %this, ptr %this.addr, align 8
  %this1 = load ptr, ptr %this.addr, align 8
  %bf.load = load i120, ptr %this1, align 1
  %bf.lshr = lshr i120 %bf.load, 64
  %bf.clear = and i120 %bf.lshr, 33554431
  %bf.cast = trunc i120 %bf.clear to i32
  %shl = shl i32 %bf.cast, 16
  %bf.load2 = load i120, ptr %this1, align 1
  %bf.clear3 = and i120 %bf.load2, 33554431
  %bf.cast4 = trunc i120 %bf.clear3 to i32
  %or = or i32 %shl, %bf.cast4
  ret i32 %or
}

; Function Attrs: mustprogress nounwind uwtable
define hidden void @_ZNK6hermes3hbc20BCProviderFromBuffer32getExceptionTableAndDebugOffsetsEj(ptr noalias sret(%"struct.std::pair") align 8 %agg.result, ptr noundef nonnull align 8 dereferenceable(376) %this, i32 noundef %functionID) #0 align 2 {
entry:
  %this.addr = alloca ptr, align 8
  %functionID.addr = alloca i32, align 4
  %header = alloca ptr, align 8
  %buf = alloca ptr, align 8
  %exceptionTable = alloca %"class.llvh::ArrayRef.18", align 8
  %exceptionHeader = alloca ptr, align 8
  %ref.tmp = alloca %"class.llvh::ArrayRef.18", align 8
  %debugOffsets = alloca ptr, align 8
  store ptr %this, ptr %this.addr, align 8
  store i32 %functionID, ptr %functionID.addr, align 4
  %this1 = load ptr, ptr %this.addr, align 8
  %functionHeaders_ = getelementptr inbounds %"class.hermes::hbc::BCProviderFromBuffer", ptr %this1, i32 0, i32 3
  %0 = load ptr, ptr %functionHeaders_, align 8
  %1 = load i32, ptr %functionID.addr, align 4
  %idxprom = zext i32 %1 to i64
  %arrayidx = getelementptr inbounds %"struct.hermes::hbc::SmallFuncHeader", ptr %0, i64 %idxprom
  store ptr %arrayidx, ptr %header, align 8
  %bufferPtr_ = getelementptr inbounds %"class.hermes::hbc::BCProviderFromBuffer", ptr %this1, i32 0, i32 2
  %2 = load ptr, ptr %bufferPtr_, align 8
  store ptr %2, ptr %buf, align 8
  %3 = load ptr, ptr %header, align 8
  %flags = getelementptr inbounds %"struct.hermes::hbc::SmallFuncHeader", ptr %3, i32 0, i32 1
  %bf.load = load i8, ptr %flags, align 1
  %bf.lshr = lshr i8 %bf.load, 5
  %bf.clear = and i8 %bf.lshr, 1
  %bf.cast = trunc i8 %bf.clear to i1
  br i1 %bf.cast, label %if.then, label %if.else

if.then:                                          ; preds = %entry
  %4 = load ptr, ptr %header, align 8
  %call = call noundef i32 @_ZNK6hermes3hbc15SmallFuncHeader20getLargeHeaderOffsetEv(ptr noundef nonnull align 1 dereferenceable(16) %4)
  %5 = load ptr, ptr %buf, align 8
  %idx.ext = zext i32 %call to i64
  %add.ptr = getelementptr inbounds i8, ptr %5, i64 %idx.ext
  store ptr %add.ptr, ptr %buf, align 8
  %6 = load ptr, ptr %buf, align 8
  %add.ptr2 = getelementptr inbounds i8, ptr %6, i64 31
  store ptr %add.ptr2, ptr %buf, align 8
  br label %if.end

if.else:                                          ; preds = %entry
  %7 = load ptr, ptr %header, align 8
  %bf.load3 = load i120, ptr %7, align 1
  %bf.lshr4 = lshr i120 %bf.load3, 64
  %bf.clear5 = and i120 %bf.lshr4, 33554431
  %bf.cast6 = trunc i120 %bf.clear5 to i32
  %8 = load ptr, ptr %buf, align 8
  %idx.ext7 = sext i32 %bf.cast6 to i64
  %add.ptr8 = getelementptr inbounds i8, ptr %8, i64 %idx.ext7
  store ptr %add.ptr8, ptr %buf, align 8
  br label %if.end

if.end:                                           ; preds = %if.else, %if.then
  call void @llvm.memset.p0.i64(ptr align 8 %exceptionTable, i8 0, i64 16, i1 false)
  call void @_ZN4llvh8ArrayRefIN6hermes3hbc23HBCExceptionHandlerInfoEEC2Ev(ptr noundef nonnull align 8 dereferenceable(16) %exceptionTable) #12
  %9 = load ptr, ptr %header, align 8
  %flags9 = getelementptr inbounds %"struct.hermes::hbc::SmallFuncHeader", ptr %9, i32 0, i32 1
  %bf.load10 = load i8, ptr %flags9, align 1
  %bf.lshr11 = lshr i8 %bf.load10, 3
  %bf.clear12 = and i8 %bf.lshr11, 1
  %bf.cast13 = trunc i8 %bf.clear12 to i1
  br i1 %bf.cast13, label %if.then14, label %if.end17

if.then14:                                        ; preds = %if.end
  call void @_ZN6hermes3hbc12_GLOBAL__N_15alignERPKhj(ptr noundef nonnull align 8 dereferenceable(8) %buf, i32 noundef 4)
  %call15 = call noundef ptr @_ZN6hermes3hbc12_GLOBAL__N_18castDataINS0_27ExceptionHandlerTableHeaderEEEPKT_RPKh(ptr noundef nonnull align 8 dereferenceable(8) %buf)
  store ptr %call15, ptr %exceptionHeader, align 8
  %10 = load ptr, ptr %exceptionHeader, align 8
  %count = getelementptr inbounds %"struct.hermes::hbc::ExceptionHandlerTableHeader", ptr %10, i32 0, i32 0
  %11 = load i32, ptr %count, align 1
  %conv = zext i32 %11 to i64
  %end_ = getelementptr inbounds %"class.hermes::hbc::BCProviderFromBuffer", ptr %this1, i32 0, i32 11
  %12 = load ptr, ptr %end_, align 8
  %call16 = call { ptr, i64 } @_ZN6hermes3hbc12_GLOBAL__N_112castArrayRefINS0_23HBCExceptionHandlerInfoEEEN4llvh8ArrayRefIT_EERPKhmS9_(ptr noundef nonnull align 8 dereferenceable(8) %buf, i64 noundef %conv, ptr noundef %12)
  %13 = getelementptr inbounds { ptr, i64 }, ptr %ref.tmp, i32 0, i32 0
  %14 = extractvalue { ptr, i64 } %call16, 0
  store ptr %14, ptr %13, align 8
  %15 = getelementptr inbounds { ptr, i64 }, ptr %ref.tmp, i32 0, i32 1
  %16 = extractvalue { ptr, i64 } %call16, 1
  store i64 %16, ptr %15, align 8
  call void @llvm.memcpy.p0.p0.i64(ptr align 8 %exceptionTable, ptr align 8 %ref.tmp, i64 16, i1 false)
  br label %if.end17

if.end17:                                         ; preds = %if.then14, %if.end
  store ptr null, ptr %debugOffsets, align 8
  %17 = load ptr, ptr %header, align 8
  %flags18 = getelementptr inbounds %"struct.hermes::hbc::SmallFuncHeader", ptr %17, i32 0, i32 1
  %bf.load19 = load i8, ptr %flags18, align 1
  %bf.lshr20 = lshr i8 %bf.load19, 4
  %bf.clear21 = and i8 %bf.lshr20, 1
  %bf.cast22 = trunc i8 %bf.clear21 to i1
  br i1 %bf.cast22, label %if.then23, label %if.end25

if.then23:                                        ; preds = %if.end17
  call void @_ZN6hermes3hbc12_GLOBAL__N_15alignERPKhj(ptr noundef nonnull align 8 dereferenceable(8) %buf, i32 noundef 4)
  %call24 = call noundef ptr @_ZN6hermes3hbc12_GLOBAL__N_18castDataINS0_12DebugOffsetsEEEPKT_RPKh(ptr noundef nonnull align 8 dereferenceable(8) %buf)
  store ptr %call24, ptr %debugOffsets, align 8
  br label %if.end25

if.end25:                                         ; preds = %if.then23, %if.end17
  call void @_ZNSt4pairIN4llvh8ArrayRefIN6hermes3hbc23HBCExceptionHandlerInfoEEEPKNS3_12DebugOffsetsEEC2IRS5_RS8_TnNSt9enable_ifIXaaclsr5_PCCPE22_MoveConstructiblePairIT_T0_EEclsr5_PCCPE30_ImplicitlyMoveConvertiblePairISE_SF_EEEbE4typeELb1EEEOSE_OSF_(ptr noundef nonnull align 8 dereferenceable(24) %agg.result, ptr noundef nonnull align 8 dereferenceable(16) %exceptionTable, ptr noundef nonnull align 8 dereferenceable(8) %debugOffsets)
  ret void
}