; Function Attrs: mustprogress nounwind uwtable
define hidden void @_ZNK6hermes3hbc20BCProviderFromBuffer32getExceptionTableAndDebugOffsetsEj(ptr noalias nocapture writeonly sret(%"struct.std::pair") align 8 %agg.result, ptr nocapture noundef nonnull readonly align 8 dereferenceable(376) %this, i32 noundef %functionID) local_unnamed_addr #0 align 2 {
entry:
  %functionHeaders_ = getelementptr inbounds i8, ptr %this, i64 296
  %0 = load ptr, ptr %functionHeaders_, align 8
  %idxprom = zext i32 %functionID to i64
  %arrayidx = getelementptr inbounds %"struct.hermes::hbc::SmallFuncHeader", ptr %0, i64 %idxprom
  %bufferPtr_ = getelementptr inbounds i8, ptr %this, i64 288
  %1 = load ptr, ptr %bufferPtr_, align 8
  %flags = getelementptr inbounds i8, ptr %arrayidx, i64 15
  %bf.load = load i8, ptr %flags, align 1
  %2 = and i8 %bf.load, 32
  %bf.cast.not = icmp eq i8 %2, 0
  %bf.load3 = load i120, ptr %arrayidx, align 1
  br i1 %bf.cast.not, label %if.else, label %if.then

if.then:                                          ; preds = %entry
  %sh.diff.i = lshr i120 %bf.load3, 48
  %tr.sh.diff.i = trunc i120 %sh.diff.i to i64
  %shl.i = and i64 %tr.sh.diff.i, 4294901760
  %3 = trunc i120 %bf.load3 to i64
  %bf.cast4.i = and i64 %3, 33554431
  %or.i = or i64 %shl.i, %bf.cast4.i
  %add.ptr = getelementptr inbounds i8, ptr %1, i64 %or.i
  %add.ptr2 = getelementptr inbounds i8, ptr %add.ptr, i64 31
  br label %if.end

if.else:                                          ; preds = %entry
  %bf.lshr4 = lshr i120 %bf.load3, 64
  %4 = trunc i120 %bf.lshr4 to i64
  %bf.cast6 = and i64 %4, 33554431
  %add.ptr8 = getelementptr inbounds i8, ptr %1, i64 %bf.cast6
  br label %if.end

if.end:                                           ; preds = %if.else, %if.then
  %storemerge = phi ptr [ %add.ptr8, %if.else ], [ %add.ptr2, %if.then ]
  %5 = and i8 %bf.load, 8
  %bf.cast13.not = icmp eq i8 %5, 0
  br i1 %bf.cast13.not, label %if.end17, label %if.then14

if.then14:                                        ; preds = %if.end
  %6 = ptrtoint ptr %storemerge to i64
  %sub.i.i = add i64 %6, 3
  %and.i.i = and i64 %sub.i.i, -4
  %7 = inttoptr i64 %and.i.i to ptr
  %add.ptr.i = getelementptr inbounds i8, ptr %7, i64 4
  %8 = load i32, ptr %7, align 4
  %conv = zext i32 %8 to i64
  %end_ = getelementptr inbounds i8, ptr %this, i64 368
  %9 = load ptr, ptr %end_, align 8
  %cmp.i = icmp ugt ptr %add.ptr.i, %9
  br i1 %cmp.i, label %if.then.i, label %lor.rhs.i

lor.rhs.i:                                        ; preds = %if.then14
  %sub.ptr.lhs.cast.i = ptrtoint ptr %9 to i64
  %sub.ptr.rhs.cast.i = ptrtoint ptr %add.ptr.i to i64
  %sub.ptr.sub.i = sub i64 %sub.ptr.lhs.cast.i, %sub.ptr.rhs.cast.i
  %div.i = udiv i64 %sub.ptr.sub.i, 12
  %cmp1.i = icmp ult i64 %div.i, %conv
  br i1 %cmp1.i, label %if.then.i, label %_ZN6hermes3hbc12_GLOBAL__N_112castArrayRefINS0_23HBCExceptionHandlerInfoEEEN4llvh8ArrayRefIT_EERPKhmS9_.exit

if.then.i:                                        ; preds = %lor.rhs.i, %if.then14
  tail call void @_ZN6hermes12hermes_fatalEPKc(ptr noundef nonnull @.str.9) #20
  unreachable

_ZN6hermes3hbc12_GLOBAL__N_112castArrayRefINS0_23HBCExceptionHandlerInfoEEEN4llvh8ArrayRefIT_EERPKhmS9_.exit: ; preds = %lor.rhs.i
  %mul.i = mul nuw nsw i64 %conv, 12
  %add.ptr.i5 = getelementptr inbounds i8, ptr %add.ptr.i, i64 %mul.i
  br label %if.end17

if.end17:                                         ; preds = %_ZN6hermes3hbc12_GLOBAL__N_112castArrayRefINS0_23HBCExceptionHandlerInfoEEEN4llvh8ArrayRefIT_EERPKhmS9_.exit, %if.end
  %buf.0 = phi ptr [ %storemerge, %if.end ], [ %add.ptr.i5, %_ZN6hermes3hbc12_GLOBAL__N_112castArrayRefINS0_23HBCExceptionHandlerInfoEEEN4llvh8ArrayRefIT_EERPKhmS9_.exit ]
  %exceptionTable.sroa.0.0 = phi ptr [ null, %if.end ], [ %add.ptr.i, %_ZN6hermes3hbc12_GLOBAL__N_112castArrayRefINS0_23HBCExceptionHandlerInfoEEEN4llvh8ArrayRefIT_EERPKhmS9_.exit ]
  %exceptionTable.sroa.4.0 = phi i64 [ 0, %if.end ], [ %conv, %_ZN6hermes3hbc12_GLOBAL__N_112castArrayRefINS0_23HBCExceptionHandlerInfoEEEN4llvh8ArrayRefIT_EERPKhmS9_.exit ]
  %10 = and i8 %bf.load, 16
  %bf.cast22.not = icmp eq i8 %10, 0
  %11 = ptrtoint ptr %buf.0 to i64
  %sub.i.i6 = add i64 %11, 3
  %and.i.i7 = and i64 %sub.i.i6, -4
  %12 = inttoptr i64 %and.i.i7 to ptr
  %debugOffsets.0 = select i1 %bf.cast22.not, ptr null, ptr %12
  store ptr %exceptionTable.sroa.0.0, ptr %agg.result, align 8
  %exceptionTable.sroa.4.0.agg.result.sroa_idx = getelementptr inbounds i8, ptr %agg.result, i64 8
  store i64 %exceptionTable.sroa.4.0, ptr %exceptionTable.sroa.4.0.agg.result.sroa_idx, align 8
  %second.i = getelementptr inbounds i8, ptr %agg.result, i64 16
  store ptr %debugOffsets.0, ptr %second.i, align 8
  ret void
}